(lp0
(S'cppflags'
p1
ccopy_reg
_reconstructor
p2
(cino.utils
SpaceList
p3
c__builtin__
list
p4
(lp5
S'-mmcu=atmega32u4'
p6
aS'-DF_CPU=16000000L'
p7
aS'-DARDUINO=105'
p8
aS'-I/home/azisi/Documents/Apps/arduino-1.0.5/hardware/arduino/cores/arduino'
p9
aS'-ffunction-sections'
p10
aS'-fdata-sections'
p11
aS'-g'
p12
aS'-Os'
p13
aS'-w'
p14
aS'-DUSB_VID=0x2341'
p15
aS'-DUSB_PID=0x8037'
p16
aS'-I/home/azisi/Documents/Apps/arduino-1.0.5/hardware/arduino/variants/micro'
p17
aS'-I/home/azisi/Documents/Apps/arduino-1.0.5/libraries/Servo'
p18
aS'-I/home/azisi/Documents/Apps/arduino-1.0.5/hardware/arduino/cores/arduino'
p19
aS'-I/home/azisi/Documents/Apps/arduino-1.0.5/hardware/arduino/cores/arduino/avr-libc'
p20
atp21
Rp22
tp23
a(S'cc'
p24
S'/home/azisi/Documents/Apps/arduino-1.0.5/hardware/tools/avr/bin/avr-gcc'
p25
tp26
a(S'arduino_libraries_dir'
p27
S'/home/azisi/Documents/Apps/arduino-1.0.5/libraries'
p28
tp29
a(S'avrdude'
p30
S'/home/azisi/Documents/Apps/arduino-1.0.5/hardware/tools/avrdude'
p31
tp32
a(S'ar'
p33
S'/home/azisi/Documents/Apps/arduino-1.0.5/hardware/tools/avr/bin/avr-ar'
p34
tp35
a(S'names'
p36
(dp37
S'cpp'
p38
S'%s.cpp'
p39
sS'obj'
p40
S'%s.o'
p41
sS'lib'
p42
S'lib%s.a'
p43
sS'deps'
p44
S'%s.d'
p45
stp46
a(S'ldflags'
p47
g2
(g3
g4
(lp48
g6
aS'-Wl,-Os'
p49
aS'-Wl,--gc-sections'
p50
atp51
Rp52
tp53
a(S'arduino_lib_version'
p54
g2
(cino.environment
Version
p55
c__builtin__
tuple
p56
(I1
I0
I5
tp57
tp58
Rp59
tp60
a(S'objcopy'
p61
S'/home/azisi/Documents/Apps/arduino-1.0.5/hardware/tools/avr/bin/avr-objcopy'
p62
tp63
a(S'board_models'
p64
cino.environment
BoardModels
p65
((lp66
(lp67
S'uno'
p68
a(dp69
S'bootloader'
p70
(dp71
S'extended_fuses'
p72
S'0x05'
p73
sS'high_fuses'
p74
S'0xde'
p75
sS'low_fuses'
p76
S'0xff'
p77
sS'lock_bits'
p78
S'0x0F'
p79
sS'file'
p80
S'optiboot_atmega328.hex'
p81
sS'path'
p82
S'optiboot'
p83
sS'unlock_bits'
p84
S'0x3F'
p85
ssS'upload'
p86
(dp87
S'protocol'
p88
S'arduino'
p89
sS'maximum_size'
p90
S'32256'
p91
sS'speed'
p92
S'115200'
p93
ssS'build'
p94
(dp95
S'core'
p96
S'arduino'
p97
sS'mcu'
p98
S'atmega328p'
p99
sS'f_cpu'
p100
S'16000000L'
p101
sS'variant'
p102
S'standard'
p103
ssS'name'
p104
S'Arduino Uno'
p105
saa(lp106
S'openservo'
p107
a(dp108
S'bootloader'
p109
(dp110
S'extended_fuses'
p111
S'0x04'
p112
sS'high_fuses'
p113
S'0xD9'
p114
sS'low_fuses'
p115
S'0xE2'
p116
sS'lock_bits'
p117
S'0x0F'
p118
sS'file'
p119
S'ATmegaBOOT_168_atmega328.hex'
p120
sS'path'
p121
S'atmega'
p122
sS'unlock_bits'
p123
S'0x3F'
p124
ssS'upload'
p125
(dp126
S'protocol'
p127
S'usbasp'
p128
sS'maximum_size'
p129
S'30720'
p130
sS'speed'
p131
S'57600'
p132
ssS'build'
p133
(dp134
S'core'
p135
S'arduino'
p136
sS'mcu'
p137
S'atmega328p'
p138
sS'f_cpu'
p139
S'8000000L'
p140
sS'variant'
p141
S'standard'
p142
ssS'name'
p143
S'openservo'
p144
saa(lp145
S'atmega328'
p146
a(dp147
S'bootloader'
p148
(dp149
S'extended_fuses'
p150
S'0x05'
p151
sS'high_fuses'
p152
S'0xDA'
p153
sS'low_fuses'
p154
S'0xFF'
p155
sS'lock_bits'
p156
S'0x0F'
p157
sS'file'
p158
S'ATmegaBOOT_168_atmega328.hex'
p159
sS'path'
p160
S'atmega'
p161
sS'unlock_bits'
p162
S'0x3F'
p163
ssS'upload'
p164
(dp165
S'protocol'
p166
S'arduino'
p167
sS'maximum_size'
p168
S'30720'
p169
sS'speed'
p170
S'57600'
p171
ssS'build'
p172
(dp173
S'core'
p174
S'arduino'
p175
sS'mcu'
p176
S'atmega328p'
p177
sS'f_cpu'
p178
S'16000000L'
p179
sS'variant'
p180
S'standard'
p181
ssS'name'
p182
S'Arduino Duemilanove w/ ATmega328'
p183
saa(lp184
S'diecimila'
p185
a(dp186
S'bootloader'
p187
(dp188
S'extended_fuses'
p189
S'0x00'
p190
sS'high_fuses'
p191
S'0xdd'
p192
sS'low_fuses'
p193
S'0xff'
p194
sS'lock_bits'
p195
S'0x0F'
p196
sS'file'
p197
S'ATmegaBOOT_168_diecimila.hex'
p198
sS'path'
p199
S'atmega'
p200
sS'unlock_bits'
p201
S'0x3F'
p202
ssS'upload'
p203
(dp204
S'protocol'
p205
S'arduino'
p206
sS'maximum_size'
p207
S'14336'
p208
sS'speed'
p209
S'19200'
p210
ssS'build'
p211
(dp212
S'core'
p213
S'arduino'
p214
sS'mcu'
p215
S'atmega168'
p216
sS'f_cpu'
p217
S'16000000L'
p218
sS'variant'
p219
S'standard'
p220
ssS'name'
p221
S'Arduino Diecimila or Duemilanove w/ ATmega168'
p222
saa(lp223
S'nano328'
p224
a(dp225
S'bootloader'
p226
(dp227
S'extended_fuses'
p228
S'0x05'
p229
sS'high_fuses'
p230
S'0xDA'
p231
sS'low_fuses'
p232
S'0xFF'
p233
sS'lock_bits'
p234
S'0x0F'
p235
sS'file'
p236
S'ATmegaBOOT_168_atmega328.hex'
p237
sS'path'
p238
S'atmega'
p239
sS'unlock_bits'
p240
S'0x3F'
p241
ssS'upload'
p242
(dp243
S'protocol'
p244
S'arduino'
p245
sS'maximum_size'
p246
S'30720'
p247
sS'speed'
p248
S'57600'
p249
ssS'build'
p250
(dp251
S'core'
p252
S'arduino'
p253
sS'mcu'
p254
S'atmega328p'
p255
sS'f_cpu'
p256
S'16000000L'
p257
sS'variant'
p258
S'eightanaloginputs'
p259
ssS'name'
p260
S'Arduino Nano w/ ATmega328'
p261
saa(lp262
S'nano'
p263
a(dp264
S'bootloader'
p265
(dp266
S'extended_fuses'
p267
S'0x00'
p268
sS'high_fuses'
p269
S'0xdd'
p270
sS'low_fuses'
p271
S'0xff'
p272
sS'lock_bits'
p273
S'0x0F'
p274
sS'file'
p275
S'ATmegaBOOT_168_diecimila.hex'
p276
sS'path'
p277
S'atmega'
p278
sS'unlock_bits'
p279
S'0x3F'
p280
ssS'upload'
p281
(dp282
S'protocol'
p283
S'arduino'
p284
sS'maximum_size'
p285
S'14336'
p286
sS'speed'
p287
S'19200'
p288
ssS'build'
p289
(dp290
S'core'
p291
S'arduino'
p292
sS'mcu'
p293
S'atmega168'
p294
sS'f_cpu'
p295
S'16000000L'
p296
sS'variant'
p297
S'eightanaloginputs'
p298
ssS'name'
p299
S'Arduino Nano w/ ATmega168'
p300
saa(lp301
S'mega2560'
p302
a(dp303
S'bootloader'
p304
(dp305
S'extended_fuses'
p306
S'0xFD'
p307
sS'high_fuses'
p308
S'0xD8'
p309
sS'low_fuses'
p310
S'0xFF'
p311
sS'lock_bits'
p312
S'0x0F'
p313
sS'file'
p314
S'stk500boot_v2_mega2560.hex'
p315
sS'path'
p316
S'stk500v2'
p317
sS'unlock_bits'
p318
S'0x3F'
p319
ssS'upload'
p320
(dp321
S'protocol'
p322
S'wiring'
p323
sS'maximum_size'
p324
S'258048'
p325
sS'speed'
p326
S'115200'
p327
ssS'build'
p328
(dp329
S'core'
p330
S'arduino'
p331
sS'mcu'
p332
S'atmega2560'
p333
sS'f_cpu'
p334
S'16000000L'
p335
sS'variant'
p336
S'mega'
p337
ssS'name'
p338
S'Arduino Mega 2560 or Mega ADK'
p339
saa(lp340
S'mega'
p341
a(dp342
S'bootloader'
p343
(dp344
S'extended_fuses'
p345
S'0xF5'
p346
sS'high_fuses'
p347
S'0xDA'
p348
sS'low_fuses'
p349
S'0xFF'
p350
sS'lock_bits'
p351
S'0x0F'
p352
sS'file'
p353
S'ATmegaBOOT_168_atmega1280.hex'
p354
sS'path'
p355
S'atmega'
p356
sS'unlock_bits'
p357
S'0x3F'
p358
ssS'upload'
p359
(dp360
S'protocol'
p361
S'arduino'
p362
sS'maximum_size'
p363
S'126976'
p364
sS'speed'
p365
S'57600'
p366
ssS'build'
p367
(dp368
S'core'
p369
S'arduino'
p370
sS'mcu'
p371
S'atmega1280'
p372
sS'f_cpu'
p373
S'16000000L'
p374
sS'variant'
p375
S'mega'
p376
ssS'name'
p377
S'Arduino Mega (ATmega1280)'
p378
saa(lp379
S'leonardo'
p380
a(dp381
S'bootloader'
p382
(dp383
S'extended_fuses'
p384
S'0xcb'
p385
sS'high_fuses'
p386
S'0xd8'
p387
sS'low_fuses'
p388
S'0xff'
p389
sS'lock_bits'
p390
S'0x2F'
p391
sS'file'
p392
S'Caterina-Leonardo.hex'
p393
sS'path'
p394
S'caterina'
p395
sS'unlock_bits'
p396
S'0x3F'
p397
ssS'upload'
p398
(dp399
S'protocol'
p400
S'avr109'
p401
sS'maximum_size'
p402
S'28672'
p403
sS'speed'
p404
S'57600'
p405
sS'disable_flushing'
p406
S'true'
p407
ssS'build'
p408
(dp409
S'core'
p410
S'arduino'
p411
sS'f_cpu'
p412
S'16000000L'
p413
sS'vid'
p414
S'0x2341'
p415
sS'pid'
p416
S'0x8036'
p417
sS'variant'
p418
S'leonardo'
p419
sS'mcu'
p420
S'atmega32u4'
p421
ssS'name'
p422
S'Arduino Leonardo'
p423
saa(lp424
S'esplora'
p425
a(dp426
S'bootloader'
p427
(dp428
S'extended_fuses'
p429
S'0xcb'
p430
sS'high_fuses'
p431
S'0xd8'
p432
sS'low_fuses'
p433
S'0xff'
p434
sS'lock_bits'
p435
S'0x2F'
p436
sS'file'
p437
S'Caterina-Esplora.hex'
p438
sS'path'
p439
S'caterina'
p440
sS'unlock_bits'
p441
S'0x3F'
p442
ssS'upload'
p443
(dp444
S'protocol'
p445
S'avr109'
p446
sS'maximum_size'
p447
S'28672'
p448
sS'speed'
p449
S'57600'
p450
sS'disable_flushing'
p451
S'true'
p452
ssS'build'
p453
(dp454
S'core'
p455
S'arduino'
p456
sS'f_cpu'
p457
S'16000000L'
p458
sS'vid'
p459
S'0x2341'
p460
sS'pid'
p461
S'0x803C'
p462
sS'variant'
p463
S'leonardo'
p464
sS'mcu'
p465
S'atmega32u4'
p466
ssS'name'
p467
S'Arduino Esplora'
p468
saa(lp469
S'micro'
p470
a(dp471
S'bootloader'
p472
(dp473
S'extended_fuses'
p474
S'0xcb'
p475
sS'high_fuses'
p476
S'0xd8'
p477
sS'low_fuses'
p478
S'0xff'
p479
sS'lock_bits'
p480
S'0x2F'
p481
sS'file'
p482
S'Caterina-Micro.hex'
p483
sS'path'
p484
S'caterina'
p485
sS'unlock_bits'
p486
S'0x3F'
p487
ssS'upload'
p488
(dp489
S'protocol'
p490
S'avr109'
p491
sS'maximum_size'
p492
S'28672'
p493
sS'speed'
p494
S'57600'
p495
sS'disable_flushing'
p496
S'true'
p497
ssS'build'
p498
(dp499
S'core'
p500
S'arduino'
p501
sS'f_cpu'
p502
S'16000000L'
p503
sS'vid'
p504
S'0x2341'
p505
sS'pid'
p506
S'0x8037'
p507
sS'variant'
p508
S'micro'
p509
sS'mcu'
p510
S'atmega32u4'
p511
ssS'name'
p512
S'Arduino Micro'
p513
saa(lp514
S'mini328'
p515
a(dp516
S'bootloader'
p517
(dp518
S'extended_fuses'
p519
S'0x05'
p520
sS'high_fuses'
p521
S'0xd8'
p522
sS'low_fuses'
p523
S'0xff'
p524
sS'lock_bits'
p525
S'0x0F'
p526
sS'file'
p527
S'optiboot_atmega328-Mini.hex'
p528
sS'path'
p529
S'optiboot'
p530
sS'unlock_bits'
p531
S'0x3F'
p532
ssS'upload'
p533
(dp534
S'protocol'
p535
S'arduino'
p536
sS'maximum_size'
p537
S'28672'
p538
sS'speed'
p539
S'115200'
p540
ssS'build'
p541
(dp542
S'core'
p543
S'arduino'
p544
sS'mcu'
p545
S'atmega328p'
p546
sS'f_cpu'
p547
S'16000000L'
p548
sS'variant'
p549
S'eightanaloginputs'
p550
ssS'name'
p551
S'Arduino Mini w/ ATmega328'
p552
saa(lp553
S'mini'
p554
a(dp555
S'bootloader'
p556
(dp557
S'extended_fuses'
p558
S'0x00'
p559
sS'high_fuses'
p560
S'0xdd'
p561
sS'low_fuses'
p562
S'0xff'
p563
sS'lock_bits'
p564
S'0x0F'
p565
sS'file'
p566
S'ATmegaBOOT_168_ng.hex'
p567
sS'path'
p568
S'atmega'
p569
sS'unlock_bits'
p570
S'0x3F'
p571
ssS'upload'
p572
(dp573
S'protocol'
p574
S'arduino'
p575
sS'maximum_size'
p576
S'14336'
p577
sS'speed'
p578
S'19200'
p579
ssS'build'
p580
(dp581
S'core'
p582
S'arduino'
p583
sS'mcu'
p584
S'atmega168'
p585
sS'f_cpu'
p586
S'16000000L'
p587
sS'variant'
p588
S'eightanaloginputs'
p589
ssS'name'
p590
S'Arduino Mini w/ ATmega168'
p591
saa(lp592
S'ethernet'
p593
a(dp594
S'bootloader'
p595
(dp596
S'extended_fuses'
p597
S'0x05'
p598
sS'high_fuses'
p599
S'0xde'
p600
sS'low_fuses'
p601
S'0xff'
p602
sS'lock_bits'
p603
S'0x0F'
p604
sS'file'
p605
S'optiboot_atmega328.hex'
p606
sS'path'
p607
S'optiboot'
p608
sS'unlock_bits'
p609
S'0x3F'
p610
ssS'upload'
p611
(dp612
S'protocol'
p613
S'arduino'
p614
sS'maximum_size'
p615
S'32256'
p616
sS'speed'
p617
S'115200'
p618
ssS'build'
p619
(dp620
S'variant'
p621
S'standard'
p622
sS'mcu'
p623
S'atmega328p'
p624
sS'f_cpu'
p625
S'16000000L'
p626
sS'core'
p627
S'arduino'
p628
ssS'name'
p629
S'Arduino Ethernet'
p630
saa(lp631
S'fio'
p632
a(dp633
S'bootloader'
p634
(dp635
S'extended_fuses'
p636
S'0x05'
p637
sS'high_fuses'
p638
S'0xDA'
p639
sS'low_fuses'
p640
S'0xFF'
p641
sS'lock_bits'
p642
S'0x0F'
p643
sS'file'
p644
S'ATmegaBOOT_168_atmega328_pro_8MHz.hex'
p645
sS'path'
p646
S'arduino:atmega'
p647
sS'unlock_bits'
p648
S'0x3F'
p649
ssS'upload'
p650
(dp651
S'protocol'
p652
S'arduino'
p653
sS'maximum_size'
p654
S'30720'
p655
sS'speed'
p656
S'57600'
p657
ssS'build'
p658
(dp659
S'core'
p660
S'arduino'
p661
sS'mcu'
p662
S'atmega328p'
p663
sS'f_cpu'
p664
S'8000000L'
p665
sS'variant'
p666
S'eightanaloginputs'
p667
ssS'name'
p668
S'Arduino Fio'
p669
saa(lp670
S'bt328'
p671
a(dp672
S'bootloader'
p673
(dp674
S'extended_fuses'
p675
S'0x05'
p676
sS'high_fuses'
p677
S'0xd8'
p678
sS'low_fuses'
p679
S'0xff'
p680
sS'lock_bits'
p681
S'0x0F'
p682
sS'file'
p683
S'ATmegaBOOT_168_atmega328_bt.hex'
p684
sS'path'
p685
S'bt'
p686
sS'unlock_bits'
p687
S'0x3F'
p688
ssS'upload'
p689
(dp690
S'protocol'
p691
S'arduino'
p692
sS'maximum_size'
p693
S'28672'
p694
sS'speed'
p695
S'19200'
p696
sS'disable_flushing'
p697
S'true'
p698
ssS'build'
p699
(dp700
S'core'
p701
S'arduino'
p702
sS'mcu'
p703
S'atmega328p'
p704
sS'f_cpu'
p705
S'16000000L'
p706
sS'variant'
p707
S'eightanaloginputs'
p708
ssS'name'
p709
S'Arduino BT w/ ATmega328'
p710
saa(lp711
S'bt'
p712
a(dp713
S'bootloader'
p714
(dp715
S'extended_fuses'
p716
S'0x00'
p717
sS'high_fuses'
p718
S'0xdd'
p719
sS'low_fuses'
p720
S'0xff'
p721
sS'lock_bits'
p722
S'0x0F'
p723
sS'file'
p724
S'ATmegaBOOT_168.hex'
p725
sS'path'
p726
S'bt'
p727
sS'unlock_bits'
p728
S'0x3F'
p729
ssS'upload'
p730
(dp731
S'protocol'
p732
S'arduino'
p733
sS'maximum_size'
p734
S'14336'
p735
sS'speed'
p736
S'19200'
p737
sS'disable_flushing'
p738
S'true'
p739
ssS'build'
p740
(dp741
S'core'
p742
S'arduino'
p743
sS'mcu'
p744
S'atmega168'
p745
sS'f_cpu'
p746
S'16000000L'
p747
sS'variant'
p748
S'eightanaloginputs'
p749
ssS'name'
p750
S'Arduino BT w/ ATmega168'
p751
saa(lp752
S'LilyPadUSB'
p753
a(dp754
S'bootloader'
p755
(dp756
S'extended_fuses'
p757
S'0xce'
p758
sS'high_fuses'
p759
S'0xd8'
p760
sS'low_fuses'
p761
S'0xff'
p762
sS'lock_bits'
p763
S'0x2F'
p764
sS'file'
p765
S'Caterina-LilyPadUSB.hex'
p766
sS'path'
p767
S'caterina-LilyPadUSB'
p768
sS'unlock_bits'
p769
S'0x3F'
p770
ssS'upload'
p771
(dp772
S'protocol'
p773
S'avr109'
p774
sS'maximum_size'
p775
S'28672'
p776
sS'speed'
p777
S'57600'
p778
sS'disable_flushing'
p779
S'true'
p780
ssS'build'
p781
(dp782
S'core'
p783
S'arduino'
p784
sS'f_cpu'
p785
S'8000000L'
p786
sS'vid'
p787
S'0x1B4F'
p788
sS'pid'
p789
S'0x9208'
p790
sS'variant'
p791
S'leonardo'
p792
sS'mcu'
p793
S'atmega32u4'
p794
ssS'name'
p795
S'LilyPad Arduino USB'
p796
saa(lp797
S'lilypad328'
p798
a(dp799
S'bootloader'
p800
(dp801
S'extended_fuses'
p802
S'0x05'
p803
sS'high_fuses'
p804
S'0xDA'
p805
sS'low_fuses'
p806
S'0xFF'
p807
sS'lock_bits'
p808
S'0x0F'
p809
sS'file'
p810
S'ATmegaBOOT_168_atmega328_pro_8MHz.hex'
p811
sS'path'
p812
S'atmega'
p813
sS'unlock_bits'
p814
S'0x3F'
p815
ssS'upload'
p816
(dp817
S'protocol'
p818
S'arduino'
p819
sS'maximum_size'
p820
S'30720'
p821
sS'speed'
p822
S'57600'
p823
ssS'build'
p824
(dp825
S'core'
p826
S'arduino'
p827
sS'mcu'
p828
S'atmega328p'
p829
sS'f_cpu'
p830
S'8000000L'
p831
sS'variant'
p832
S'standard'
p833
ssS'name'
p834
S'LilyPad Arduino w/ ATmega328'
p835
saa(lp836
S'lilypad'
p837
a(dp838
S'bootloader'
p839
(dp840
S'extended_fuses'
p841
S'0x00'
p842
sS'high_fuses'
p843
S'0xdd'
p844
sS'low_fuses'
p845
S'0xe2'
p846
sS'lock_bits'
p847
S'0x0F'
p848
sS'file'
p849
S'LilyPadBOOT_168.hex'
p850
sS'path'
p851
S'lilypad'
p852
sS'unlock_bits'
p853
S'0x3F'
p854
ssS'upload'
p855
(dp856
S'protocol'
p857
S'arduino'
p858
sS'maximum_size'
p859
S'14336'
p860
sS'speed'
p861
S'19200'
p862
ssS'build'
p863
(dp864
S'core'
p865
S'arduino'
p866
sS'mcu'
p867
S'atmega168'
p868
sS'f_cpu'
p869
S'8000000L'
p870
sS'variant'
p871
S'standard'
p872
ssS'name'
p873
S'LilyPad Arduino w/ ATmega168'
p874
saa(lp875
S'pro5v328'
p876
a(dp877
S'bootloader'
p878
(dp879
S'extended_fuses'
p880
S'0x05'
p881
sS'high_fuses'
p882
S'0xDA'
p883
sS'low_fuses'
p884
S'0xFF'
p885
sS'lock_bits'
p886
S'0x0F'
p887
sS'file'
p888
S'ATmegaBOOT_168_atmega328.hex'
p889
sS'path'
p890
S'atmega'
p891
sS'unlock_bits'
p892
S'0x3F'
p893
ssS'upload'
p894
(dp895
S'protocol'
p896
S'arduino'
p897
sS'maximum_size'
p898
S'30720'
p899
sS'speed'
p900
S'57600'
p901
ssS'build'
p902
(dp903
S'core'
p904
S'arduino'
p905
sS'mcu'
p906
S'atmega328p'
p907
sS'f_cpu'
p908
S'16000000L'
p909
sS'variant'
p910
S'standard'
p911
ssS'name'
p912
S'Arduino Pro or Pro Mini (5V, 16 MHz) w/ ATmega328'
p913
saa(lp914
S'pro5v'
p915
a(dp916
S'bootloader'
p917
(dp918
S'extended_fuses'
p919
S'0x00'
p920
sS'high_fuses'
p921
S'0xdd'
p922
sS'low_fuses'
p923
S'0xff'
p924
sS'lock_bits'
p925
S'0x0F'
p926
sS'file'
p927
S'ATmegaBOOT_168_diecimila.hex'
p928
sS'path'
p929
S'atmega'
p930
sS'unlock_bits'
p931
S'0x3F'
p932
ssS'upload'
p933
(dp934
S'protocol'
p935
S'arduino'
p936
sS'maximum_size'
p937
S'14336'
p938
sS'speed'
p939
S'19200'
p940
ssS'build'
p941
(dp942
S'core'
p943
S'arduino'
p944
sS'mcu'
p945
S'atmega168'
p946
sS'f_cpu'
p947
S'16000000L'
p948
sS'variant'
p949
S'standard'
p950
ssS'name'
p951
S'Arduino Pro or Pro Mini (5V, 16 MHz) w/ ATmega168'
p952
saa(lp953
S'pro328'
p954
a(dp955
S'bootloader'
p956
(dp957
S'extended_fuses'
p958
S'0x05'
p959
sS'high_fuses'
p960
S'0xDA'
p961
sS'low_fuses'
p962
S'0xFF'
p963
sS'lock_bits'
p964
S'0x0F'
p965
sS'file'
p966
S'ATmegaBOOT_168_atmega328_pro_8MHz.hex'
p967
sS'path'
p968
S'atmega'
p969
sS'unlock_bits'
p970
S'0x3F'
p971
ssS'upload'
p972
(dp973
S'protocol'
p974
S'arduino'
p975
sS'maximum_size'
p976
S'30720'
p977
sS'speed'
p978
S'57600'
p979
ssS'build'
p980
(dp981
S'core'
p982
S'arduino'
p983
sS'mcu'
p984
S'atmega328p'
p985
sS'f_cpu'
p986
S'8000000L'
p987
sS'variant'
p988
S'standard'
p989
ssS'name'
p990
S'Arduino Pro or Pro Mini (3.3V, 8 MHz) w/ ATmega328'
p991
saa(lp992
S'pro'
p993
a(dp994
S'bootloader'
p995
(dp996
S'extended_fuses'
p997
S'0x00'
p998
sS'high_fuses'
p999
S'0xdd'
p1000
sS'low_fuses'
p1001
S'0xc6'
p1002
sS'lock_bits'
p1003
S'0x0F'
p1004
sS'file'
p1005
S'ATmegaBOOT_168_pro_8MHz.hex'
p1006
sS'path'
p1007
S'atmega'
p1008
sS'unlock_bits'
p1009
S'0x3F'
p1010
ssS'upload'
p1011
(dp1012
S'protocol'
p1013
S'arduino'
p1014
sS'maximum_size'
p1015
S'14336'
p1016
sS'speed'
p1017
S'19200'
p1018
ssS'build'
p1019
(dp1020
S'core'
p1021
S'arduino'
p1022
sS'mcu'
p1023
S'atmega168'
p1024
sS'f_cpu'
p1025
S'8000000L'
p1026
sS'variant'
p1027
S'standard'
p1028
ssS'name'
p1029
S'Arduino Pro or Pro Mini (3.3V, 8 MHz) w/ ATmega168'
p1030
saa(lp1031
S'atmega168'
p1032
a(dp1033
S'bootloader'
p1034
(dp1035
S'extended_fuses'
p1036
S'0x00'
p1037
sS'high_fuses'
p1038
S'0xdd'
p1039
sS'low_fuses'
p1040
S'0xff'
p1041
sS'lock_bits'
p1042
S'0x0F'
p1043
sS'file'
p1044
S'ATmegaBOOT_168_ng.hex'
p1045
sS'path'
p1046
S'atmega'
p1047
sS'unlock_bits'
p1048
S'0x3F'
p1049
ssS'upload'
p1050
(dp1051
S'protocol'
p1052
S'arduino'
p1053
sS'maximum_size'
p1054
S'14336'
p1055
sS'speed'
p1056
S'19200'
p1057
ssS'build'
p1058
(dp1059
S'core'
p1060
S'arduino'
p1061
sS'mcu'
p1062
S'atmega168'
p1063
sS'f_cpu'
p1064
S'16000000L'
p1065
sS'variant'
p1066
S'standard'
p1067
ssS'name'
p1068
S'Arduino NG or older w/ ATmega168'
p1069
saa(lp1070
S'atmega8'
p1071
a(dp1072
S'bootloader'
p1073
(dp1074
S'high_fuses'
p1075
S'0xca'
p1076
sS'low_fuses'
p1077
S'0xdf'
p1078
sS'lock_bits'
p1079
S'0x0F'
p1080
sS'file'
p1081
S'ATmegaBOOT-prod-firmware-2009-11-07.hex'
p1082
sS'path'
p1083
S'atmega8'
p1084
sS'unlock_bits'
p1085
S'0x3F'
p1086
ssS'upload'
p1087
(dp1088
S'protocol'
p1089
S'arduino'
p1090
sS'maximum_size'
p1091
S'7168'
p1092
sS'speed'
p1093
S'19200'
p1094
ssS'build'
p1095
(dp1096
S'core'
p1097
S'arduino'
p1098
sS'mcu'
p1099
S'atmega8'
p1100
sS'f_cpu'
p1101
S'16000000L'
p1102
sS'variant'
p1103
S'standard'
p1104
ssS'name'
p1105
S'Arduino NG or older w/ ATmega8'
p1106
saa(lp1107
S'robotControl'
p1108
a(dp1109
S'bootloader'
p1110
(dp1111
S'extended_fuses'
p1112
S'0xcb'
p1113
sS'high_fuses'
p1114
S'0xd8'
p1115
sS'low_fuses'
p1116
S'0xff'
p1117
sS'lock_bits'
p1118
S'0x2F'
p1119
sS'file'
p1120
S'Caterina-Robot-Control.hex'
p1121
sS'path'
p1122
S'caterina-Arduino_Robot'
p1123
sS'unlock_bits'
p1124
S'0x3F'
p1125
ssS'upload'
p1126
(dp1127
S'protocol'
p1128
S'avr109'
p1129
sS'maximum_size'
p1130
S'28672'
p1131
sS'speed'
p1132
S'57600'
p1133
sS'disable_flushing'
p1134
S'true'
p1135
ssS'build'
p1136
(dp1137
S'core'
p1138
S'robot'
p1139
sS'f_cpu'
p1140
S'16000000L'
p1141
sS'vid'
p1142
S'0x2341'
p1143
sS'pid'
p1144
S'0x8038'
p1145
sS'variant'
p1146
S'robot_control'
p1147
sS'mcu'
p1148
S'atmega32u4'
p1149
ssS'name'
p1150
S'Arduino Robot Control'
p1151
saa(lp1152
S'robotMotor'
p1153
a(dp1154
S'bootloader'
p1155
(dp1156
S'extended_fuses'
p1157
S'0xcb'
p1158
sS'high_fuses'
p1159
S'0xd8'
p1160
sS'low_fuses'
p1161
S'0xff'
p1162
sS'lock_bits'
p1163
S'0x2F'
p1164
sS'file'
p1165
S'Caterina-Robot-Motor.hex'
p1166
sS'path'
p1167
S'caterina-Arduino_Robot'
p1168
sS'unlock_bits'
p1169
S'0x3F'
p1170
ssS'upload'
p1171
(dp1172
S'protocol'
p1173
S'avr109'
p1174
sS'maximum_size'
p1175
S'28672'
p1176
sS'speed'
p1177
S'57600'
p1178
sS'disable_flushing'
p1179
S'true'
p1180
ssS'build'
p1181
(dp1182
S'core'
p1183
S'robot'
p1184
sS'f_cpu'
p1185
S'16000000L'
p1186
sS'vid'
p1187
S'0x2341'
p1188
sS'pid'
p1189
S'0x8039'
p1190
sS'variant'
p1191
S'robot_motor'
p1192
sS'mcu'
p1193
S'atmega32u4'
p1194
ssS'name'
p1195
S'Arduino Robot Motor'
p1196
saatp1197
Rp1198
(dp1199
S'default'
p1200
S'uno'
p1201
sbtp1202
a(S'used_libs'
p1203
(lp1204
S'/home/azisi/Documents/Apps/arduino-1.0.5/libraries/Servo'
p1205
aS'/home/azisi/Documents/Apps/arduino-1.0.5/hardware/arduino/cores/arduino'
p1206
atp1207
a(S'make'
p1208
S'/usr/bin/make'
p1209
tp1210
a(S'build_dir'
p1211
S'.build/micro'
p1212
tp1213
a(S'cxx'
p1214
S'/home/azisi/Documents/Apps/arduino-1.0.5/hardware/tools/avr/bin/avr-g++'
p1215
tp1216
a(S'cflags'
p1217
g2
(g3
g4
(lp1218
tp1219
Rp1220
tp1221
a(S'arduino_dist_dir'
p1222
S'/home/azisi/Documents/Apps/arduino-1.0.5'
p1223
tp1224
a(S'cxxflags'
p1225
g2
(g3
g4
(lp1226
S'-fno-exceptions'
p1227
atp1228
Rp1229
tp1230
a(S'arduino_variants_dir'
p1231
S'/home/azisi/Documents/Apps/arduino-1.0.5/hardware/arduino/variants'
p1232
tp1233
a(S'stty'
p1234
S'/bin/stty'
p1235
tp1236
a(S'version.txt'
p1237
S'/home/azisi/Documents/Apps/arduino-1.0.5/lib/version.txt'
p1238
tp1239
a(S'arduino_core_dir'
p1240
g1206
tp1241
a(S'boards.txt'
p1242
S'/home/azisi/Documents/Apps/arduino-1.0.5/hardware/arduino/boards.txt'
p1243
tp1244
a(S'avrdude.conf'
p1245
S'/home/azisi/Documents/Apps/arduino-1.0.5/hardware/tools/avrdude.conf'
p1246
tp1247
a(S'deps'
p1248
g2
(g3
g4
(lp1249
S'.build/micro/src/dependencies.d'
p1250
aS'.build/micro/arduino/dependencies.d'
p1251
aS'.build/micro/Servo/dependencies.d'
p1252
atp1253
Rp1254
tp1255
a.